; ModuleID = 'source-C-CXX/39/302.c'
source_filename = "source-C-CXX/39/302.c"
target datalayout = "e-m:e-p270:32:32-p271:32:32-p272:64:64-i64:64-f80:128-n8:16:32:64-S128"
target triple = "x86_64-pc-linux-gnu"

@.str = private unnamed_addr constant [4 x i8] c"%lf\00", align 1
@.str.1 = private unnamed_addr constant [6 x i8] c"%.4lf\00", align 1
@.str.2 = private unnamed_addr constant [14 x i8] c"Invalid input\00", align 1

; Function Attrs: nofree nounwind sspstrong uwtable
define dso_local void @asdf() local_unnamed_addr #0 {
  %1 = alloca double, align 8
  %2 = alloca double, align 8
  %3 = alloca double, align 8
  %4 = alloca double, align 8
  %5 = alloca double, align 8
  %6 = bitcast double* %1 to i8*
  call void @llvm.lifetime.start.p0i8(i64 8, i8* nonnull %6) #4
  %7 = bitcast double* %2 to i8*
  call void @llvm.lifetime.start.p0i8(i64 8, i8* nonnull %7) #4
  %8 = bitcast double* %3 to i8*
  call void @llvm.lifetime.start.p0i8(i64 8, i8* nonnull %8) #4
  %9 = bitcast double* %4 to i8*
  call void @llvm.lifetime.start.p0i8(i64 8, i8* nonnull %9) #4
  %10 = bitcast double* %5 to i8*
  call void @llvm.lifetime.start.p0i8(i64 8, i8* nonnull %10) #4
  %11 = call i32 (i8*, ...) @__isoc99_scanf(i8* getelementptr inbounds ([4 x i8], [4 x i8]* @.str, i64 0, i64 0), double* nonnull %1)
  %12 = call i32 (i8*, ...) @__isoc99_scanf(i8* getelementptr inbounds ([4 x i8], [4 x i8]* @.str, i64 0, i64 0), double* nonnull %2)
  %13 = call i32 (i8*, ...) @__isoc99_scanf(i8* getelementptr inbounds ([4 x i8], [4 x i8]* @.str, i64 0, i64 0), double* nonnull %3)
  %14 = call i32 (i8*, ...) @__isoc99_scanf(i8* getelementptr inbounds ([4 x i8], [4 x i8]* @.str, i64 0, i64 0), double* nonnull %4)
  %15 = call i32 (i8*, ...) @__isoc99_scanf(i8* getelementptr inbounds ([4 x i8], [4 x i8]* @.str, i64 0, i64 0), double* nonnull %5)
  %16 = load double, double* %5, align 8, !tbaa !5
  %17 = fmul double %16, 0x400921FB4D12D84A
  %18 = fdiv double %17, 3.600000e+02
  store double %18, double* %5, align 8, !tbaa !5
  %19 = load double, double* %1, align 8, !tbaa !5
  %20 = load double, double* %2, align 8, !tbaa !5
  %21 = fadd double %19, %20
  %22 = load double, double* %3, align 8, !tbaa !5
  %23 = fadd double %21, %22
  %24 = load double, double* %4, align 8, !tbaa !5
  %25 = fadd double %23, %24
  %26 = fmul double %25, 5.000000e-01
  %27 = fsub double %26, %19
  %28 = fsub double %26, %20
  %29 = fmul double %27, %28
  %30 = fsub double %26, %22
  %31 = fmul double %30, %29
  %32 = fsub double %26, %24
  %33 = fmul double %32, %31
  %34 = fmul double %19, %20
  %35 = fmul double %34, %22
  %36 = fmul double %35, %24
  %37 = call double @cos(double %18) #4
  %38 = fmul double %36, %37
  %39 = load double, double* %5, align 8, !tbaa !5
  %40 = call double @cos(double %39) #4
  %41 = fmul double %38, %40
  %42 = fsub double %33, %41
  %43 = fcmp ult double %42, 0.000000e+00
  br i1 %43, label %68, label %44

44:                                               ; preds = %0
  %45 = load double, double* %1, align 8, !tbaa !5
  %46 = fsub double %26, %45
  %47 = load double, double* %2, align 8, !tbaa !5
  %48 = fsub double %26, %47
  %49 = fmul double %46, %48
  %50 = load double, double* %3, align 8, !tbaa !5
  %51 = fsub double %26, %50
  %52 = fmul double %49, %51
  %53 = load double, double* %4, align 8, !tbaa !5
  %54 = fsub double %26, %53
  %55 = fmul double %52, %54
  %56 = fmul double %45, %47
  %57 = fmul double %56, %50
  %58 = fmul double %57, %53
  %59 = load double, double* %5, align 8, !tbaa !5
  %60 = call double @cos(double %59) #4
  %61 = fmul double %58, %60
  %62 = load double, double* %5, align 8, !tbaa !5
  %63 = call double @cos(double %62) #4
  %64 = fmul double %61, %63
  %65 = fsub double %55, %64
  %66 = call double @sqrt(double %65) #4
  %67 = call i32 (i8*, ...) @printf(i8* nonnull dereferenceable(1) getelementptr inbounds ([6 x i8], [6 x i8]* @.str.1, i64 0, i64 0), double %66)
  br label %70

68:                                               ; preds = %0
  %69 = call i32 (i8*, ...) @printf(i8* nonnull dereferenceable(1) getelementptr inbounds ([14 x i8], [14 x i8]* @.str.2, i64 0, i64 0))
  br label %70

70:                                               ; preds = %68, %44
  call void @llvm.lifetime.end.p0i8(i64 8, i8* nonnull %10) #4
  call void @llvm.lifetime.end.p0i8(i64 8, i8* nonnull %9) #4
  call void @llvm.lifetime.end.p0i8(i64 8, i8* nonnull %8) #4
  call void @llvm.lifetime.end.p0i8(i64 8, i8* nonnull %7) #4
  call void @llvm.lifetime.end.p0i8(i64 8, i8* nonnull %6) #4
  ret void
}

; Function Attrs: argmemonly mustprogress nofree nosync nounwind willreturn
declare void @llvm.lifetime.start.p0i8(i64 immarg, i8* nocapture) #1

; Function Attrs: nofree nounwind
declare noundef i32 @__isoc99_scanf(i8* nocapture noundef readonly, ...) local_unnamed_addr #2

; Function Attrs: mustprogress nofree nounwind willreturn
declare double @cos(double) local_unnamed_addr #3

; Function Attrs: mustprogress nofree nounwind willreturn
declare double @sqrt(double) local_unnamed_addr #3

; Function Attrs: nofree nounwind
declare noundef i32 @printf(i8* nocapture noundef readonly, ...) local_unnamed_addr #2

; Function Attrs: argmemonly mustprogress nofree nosync nounwind willreturn
declare void @llvm.lifetime.end.p0i8(i64 immarg, i8* nocapture) #1

; Function Attrs: nofree nounwind sspstrong uwtable
define dso_local void @main() local_unnamed_addr #0 {
  tail call void @asdf()
  ret void
}


!llvm.module.flags = !{!0, !1, !2, !3}
!llvm.ident = !{!4}

!0 = !{i32 1, !"wchar_size", i32 4}
!1 = !{i32 7, !"PIC Level", i32 2}
!2 = !{i32 7, !"PIE Level", i32 2}
!3 = !{i32 7, !"uwtable", i32 1}
!4 = !{!"clang version 13.0.0"}
!5 = !{!6, !6, i64 0}
!6 = !{!"double", !7, i64 0}
!7 = !{!"omnipotent char", !8, i64 0}
!8 = !{!"Simple C/C++ TBAA"}
